; Function Attrs: nounwind uwtable
define dso_local void @perl_quote_buf(ptr noundef %0, ptr noundef readonly captures(none) %1) local_unnamed_addr #0 {
  %3 = load i64, ptr %0, align 8, !tbaa !11
  %.not.i.i = icmp eq i64 %3, 0
  br i1 %.not.i.i, label %strbuf_avail.exit.thread.i, label %strbuf_avail.exit.i

strbuf_avail.exit.i:                              ; preds = %2
  %4 = getelementptr inbounds nuw i8, ptr %0, i64 8
  %5 = load i64, ptr %4, align 8, !tbaa !12
  %.neg.i = add i64 %5, 1
  %.not.i = icmp eq i64 %3, %.neg.i
  br i1 %.not.i, label %strbuf_avail.exit.thread.i, label %strbuf_addch.exit

strbuf_avail.exit.thread.i:                       ; preds = %strbuf_avail.exit.i, %2
  tail call void @strbuf_grow(ptr noundef nonnull %0, i64 noundef 1) #12
  %.phi.trans.insert.i = getelementptr inbounds nuw i8, ptr %0, i64 8
  %.pre.i = load i64, ptr %.phi.trans.insert.i, align 8, !tbaa !12
  %.pre7.i = add i64 %.pre.i, 1
  br label %strbuf_addch.exit

strbuf_addch.exit:                                ; preds = %strbuf_avail.exit.i, %strbuf_avail.exit.thread.i
  %.pre-phi.i = phi i64 [ %.pre7.i, %strbuf_avail.exit.thread.i ], [ %.neg.i, %strbuf_avail.exit.i ]
  %6 = phi i64 [ %.pre.i, %strbuf_avail.exit.thread.i ], [ %5, %strbuf_avail.exit.i ]
  %7 = getelementptr inbounds nuw i8, ptr %0, i64 16
  %8 = load ptr, ptr %7, align 8, !tbaa !4
  %9 = getelementptr inbounds nuw i8, ptr %0, i64 8
  store i64 %.pre-phi.i, ptr %9, align 8, !tbaa !12
  %10 = getelementptr inbounds nuw i8, ptr %8, i64 %6
  store i8 39, ptr %10, align 1, !tbaa !13
  br label %11

11:                                               ; preds = %strbuf_addch.exit29, %strbuf_addch.exit
  %.0 = phi ptr [ %1, %strbuf_addch.exit ], [ %15, %strbuf_addch.exit29 ]
  %12 = load ptr, ptr %7, align 8, !tbaa !4
  %13 = load i64, ptr %9, align 8, !tbaa !12
  %14 = getelementptr inbounds nuw i8, ptr %12, i64 %13
  store i8 0, ptr %14, align 1, !tbaa !13
  %15 = getelementptr inbounds nuw i8, ptr %.0, i64 1
  %16 = load i8, ptr %.0, align 1, !tbaa !13
  switch i8 %16, label %26 [
    i8 0, label %32
    i8 92, label %17
    i8 39, label %17
  ]

17:                                               ; preds = %11, %11
  %18 = load i64, ptr %0, align 8, !tbaa !11
  %.not.i.i10 = icmp eq i64 %18, 0
  br i1 %.not.i.i10, label %strbuf_avail.exit.thread.i15, label %strbuf_avail.exit.i11

strbuf_avail.exit.i11:                            ; preds = %17
  %19 = load i64, ptr %9, align 8, !tbaa !12
  %.neg.i12 = add i64 %19, 1
  %.not.i13 = icmp eq i64 %18, %.neg.i12
  br i1 %.not.i13, label %strbuf_avail.exit.thread.i15, label %strbuf_addch.exit19

strbuf_avail.exit.thread.i15:                     ; preds = %strbuf_avail.exit.i11, %17
  tail call void @strbuf_grow(ptr noundef nonnull %0, i64 noundef 1) #12
  %.pre.i17 = load i64, ptr %9, align 8, !tbaa !12
  %.pre7.i18 = add i64 %.pre.i17, 1
  br label %strbuf_addch.exit19

strbuf_addch.exit19:                              ; preds = %strbuf_avail.exit.i11, %strbuf_avail.exit.thread.i15
  %.pre-phi.i14 = phi i64 [ %.pre7.i18, %strbuf_avail.exit.thread.i15 ], [ %.neg.i12, %strbuf_avail.exit.i11 ]
  %20 = phi i64 [ %.pre.i17, %strbuf_avail.exit.thread.i15 ], [ %19, %strbuf_avail.exit.i11 ]
  %21 = load ptr, ptr %7, align 8, !tbaa !4
  store i64 %.pre-phi.i14, ptr %9, align 8, !tbaa !12
  %22 = getelementptr inbounds nuw i8, ptr %21, i64 %20
  store i8 92, ptr %22, align 1, !tbaa !13
  %23 = load ptr, ptr %7, align 8, !tbaa !4
  %24 = load i64, ptr %9, align 8, !tbaa !12
  %25 = getelementptr inbounds nuw i8, ptr %23, i64 %24
  store i8 0, ptr %25, align 1, !tbaa !13
  br label %26

26:                                               ; preds = %11, %strbuf_addch.exit19
  %27 = load i64, ptr %0, align 8, !tbaa !11
  %.not.i.i20 = icmp eq i64 %27, 0
  br i1 %.not.i.i20, label %strbuf_avail.exit.thread.i25, label %strbuf_avail.exit.i21

strbuf_avail.exit.i21:                            ; preds = %26
  %28 = load i64, ptr %9, align 8, !tbaa !12
  %.neg.i22 = add i64 %28, 1
  %.not.i23 = icmp eq i64 %27, %.neg.i22
  br i1 %.not.i23, label %strbuf_avail.exit.thread.i25, label %strbuf_addch.exit29

strbuf_avail.exit.thread.i25:                     ; preds = %strbuf_avail.exit.i21, %26
  tail call void @strbuf_grow(ptr noundef nonnull %0, i64 noundef 1) #12
  %.pre.i27 = load i64, ptr %9, align 8, !tbaa !12
  %.pre7.i28 = add i64 %.pre.i27, 1
  br label %strbuf_addch.exit29

strbuf_addch.exit29:                              ; preds = %strbuf_avail.exit.i21, %strbuf_avail.exit.thread.i25
  %.pre-phi.i24 = phi i64 [ %.pre7.i28, %strbuf_avail.exit.thread.i25 ], [ %.neg.i22, %strbuf_avail.exit.i21 ]
  %29 = phi i64 [ %.pre.i27, %strbuf_avail.exit.thread.i25 ], [ %28, %strbuf_avail.exit.i21 ]
  %30 = load ptr, ptr %7, align 8, !tbaa !4
  store i64 %.pre-phi.i24, ptr %9, align 8, !tbaa !12
  %31 = getelementptr inbounds nuw i8, ptr %30, i64 %29
  store i8 %16, ptr %31, align 1, !tbaa !13
  br label %11, !llvm.loop !28

32:                                               ; preds = %11
  %33 = load i64, ptr %0, align 8, !tbaa !11
  %.not.i.i30 = icmp eq i64 %33, 0
  br i1 %.not.i.i30, label %strbuf_avail.exit.thread.i35, label %strbuf_avail.exit.i31

strbuf_avail.exit.i31:                            ; preds = %32
  %34 = load i64, ptr %9, align 8, !tbaa !12
  %.neg.i32 = add i64 %34, 1
  %.not.i33 = icmp eq i64 %33, %.neg.i32
  br i1 %.not.i33, label %strbuf_avail.exit.thread.i35, label %strbuf_addch.exit39

strbuf_avail.exit.thread.i35:                     ; preds = %strbuf_avail.exit.i31, %32
  tail call void @strbuf_grow(ptr noundef nonnull %0, i64 noundef 1) #12
  %.pre.i37 = load i64, ptr %9, align 8, !tbaa !12
  %.pre7.i38 = add i64 %.pre.i37, 1
  br label %strbuf_addch.exit39

strbuf_addch.exit39:                              ; preds = %strbuf_avail.exit.i31, %strbuf_avail.exit.thread.i35
  %.pre-phi.i34 = phi i64 [ %.pre7.i38, %strbuf_avail.exit.thread.i35 ], [ %.neg.i32, %strbuf_avail.exit.i31 ]
  %35 = phi i64 [ %.pre.i37, %strbuf_avail.exit.thread.i35 ], [ %34, %strbuf_avail.exit.i31 ]
  %36 = load ptr, ptr %7, align 8, !tbaa !4
  store i64 %.pre-phi.i34, ptr %9, align 8, !tbaa !12
  %37 = getelementptr inbounds nuw i8, ptr %36, i64 %35
  store i8 39, ptr %37, align 1, !tbaa !13
  %38 = load ptr, ptr %7, align 8, !tbaa !4
  %39 = load i64, ptr %9, align 8, !tbaa !12
  %40 = getelementptr inbounds nuw i8, ptr %38, i64 %39
  store i8 0, ptr %40, align 1, !tbaa !13
  ret void
}